target datalayout = "e-m:e-p270:32:32-p271:32:32-p272:64:64-i64:64-i128:128-f80:128-n8:16:32:64-S128"
target triple = "x86_64-pc-linux-gnu"

%struct.test_fixture = type { ptr, ptr, ptr, i32, i32, ptr }

@libctx = internal global ptr null, align 8
@.str.14 = private unnamed_addr constant [34 x i8] c"../openssl/test/cmp_client_test.c\00", align 1
@pkcs10_f = internal global ptr null, align 8
@__func__.test_exec_P10CR_ses = private unnamed_addr constant [20 x i8] c"test_exec_P10CR_ses\00", align 1
@.str.74 = private unnamed_addr constant [37 x i8] c"csr = load_csr_der(pkcs10_f, libctx)\00", align 1
@.str.75 = private unnamed_addr constant [35 x i8] c"OSSL_CMP_CTX_set1_p10CSR(ctx, csr)\00", align 1
@.str.76 = private unnamed_addr constant [52 x i8] c"OSSL_CMP_CTX_set_certConf_cb(ctx, test_certConf_cb)\00", align 1
@.str.77 = private unnamed_addr constant [47 x i8] c"OSSL_CMP_CTX_set_certConf_cb_arg(ctx, &reject)\00", align 1

; Function Attrs: inlinehint nounwind uwtable
define internal ptr @ossl_check_X509_sk_type(ptr noundef %0) #3 {
  %2 = alloca ptr, align 8
  store ptr %0, ptr %2, align 8, !tbaa !32
  %3 = load ptr, ptr %2, align 8, !tbaa !32
  ret ptr %3
}

; Function Attrs: nounwind uwtable
define internal void @tear_down(ptr noundef %0) #0 {
  %2 = alloca ptr, align 8
  store ptr %0, ptr %2, align 8, !tbaa !17
  %3 = load ptr, ptr %2, align 8, !tbaa !17
  %4 = getelementptr inbounds nuw %struct.test_fixture, ptr %3, i32 0, i32 1
  %5 = load ptr, ptr %4, align 8, !tbaa !29
  call void @OSSL_CMP_CTX_free(ptr noundef %5)
  %6 = load ptr, ptr %2, align 8, !tbaa !17
  %7 = getelementptr inbounds nuw %struct.test_fixture, ptr %6, i32 0, i32 2
  %8 = load ptr, ptr %7, align 8, !tbaa !21
  call void @ossl_cmp_mock_srv_free(ptr noundef %8)
  %9 = load ptr, ptr %2, align 8, !tbaa !17
  %10 = getelementptr inbounds nuw %struct.test_fixture, ptr %9, i32 0, i32 5
  %11 = load ptr, ptr %10, align 8, !tbaa !28
  %12 = call ptr @ossl_check_X509_sk_type(ptr noundef %11)
  call void @OPENSSL_sk_free(ptr noundef %12)
  %13 = load ptr, ptr %2, align 8, !tbaa !17
  call void @CRYPTO_free(ptr noundef %13, ptr noundef @.str.14, i32 noundef 51)
  ret void
}

; Function Attrs: nounwind uwtable
define internal i32 @test_exec_P10CR_ses(i32 noundef %0) #0 {
  %2 = alloca i32, align 4
  %3 = alloca i32, align 4
  %4 = alloca ptr, align 8
  %5 = alloca ptr, align 8
  %6 = alloca ptr, align 8
  %7 = alloca i32, align 4
  %8 = alloca i32, align 4
  store i32 %0, ptr %3, align 4, !tbaa !19
  call void @llvm.lifetime.start.p0(i64 8, ptr %4) #4
  call void @llvm.lifetime.start.p0(i64 8, ptr %5) #4
  store ptr null, ptr %5, align 8, !tbaa !40
  call void @llvm.lifetime.start.p0(i64 8, ptr %6) #4
  %9 = call ptr @set_up(ptr noundef @__func__.test_exec_P10CR_ses)
  store ptr %9, ptr %6, align 8, !tbaa !17
  call void @llvm.lifetime.start.p0(i64 4, ptr %7) #4
  store i32 0, ptr %7, align 4, !tbaa !19
  %10 = load ptr, ptr %6, align 8, !tbaa !17
  %11 = icmp eq ptr %10, null
  br i1 %11, label %12, label %13

12:                                               ; preds = %1
  store i32 0, ptr %2, align 4
  store i32 1, ptr %8, align 4
  br label %63

13:                                               ; preds = %1
  %14 = load ptr, ptr %6, align 8, !tbaa !17
  %15 = getelementptr inbounds nuw %struct.test_fixture, ptr %14, i32 0, i32 3
  store i32 4, ptr %15, align 8, !tbaa !27
  %16 = load i32, ptr %3, align 4, !tbaa !19
  %17 = icmp ne i32 %16, 0
  %18 = select i1 %17, i32 2, i32 0
  %19 = load ptr, ptr %6, align 8, !tbaa !17
  %20 = getelementptr inbounds nuw %struct.test_fixture, ptr %19, i32 0, i32 4
  store i32 %18, ptr %20, align 4, !tbaa !26
  %21 = load ptr, ptr %6, align 8, !tbaa !17
  %22 = getelementptr inbounds nuw %struct.test_fixture, ptr %21, i32 0, i32 1
  %23 = load ptr, ptr %22, align 8, !tbaa !29
  store ptr %23, ptr %4, align 8, !tbaa !30
  %24 = load ptr, ptr @pkcs10_f, align 8, !tbaa !15
  %25 = load ptr, ptr @libctx, align 8, !tbaa !13
  %26 = call ptr @load_csr_der(ptr noundef %24, ptr noundef %25)
  store ptr %26, ptr %5, align 8, !tbaa !40
  %27 = call i32 @test_ptr(ptr noundef @.str.14, i32 noundef 343, ptr noundef @.str.74, ptr noundef %26)
  %28 = icmp ne i32 %27, 0
  br i1 %28, label %29, label %51

29:                                               ; preds = %13
  %30 = load ptr, ptr %4, align 8, !tbaa !30
  %31 = load ptr, ptr %5, align 8, !tbaa !40
  %32 = call i32 @OSSL_CMP_CTX_set1_p10CSR(ptr noundef %30, ptr noundef %31)
  %33 = icmp ne i32 %32, 0
  %34 = zext i1 %33 to i32
  %35 = call i32 @test_true(ptr noundef @.str.14, i32 noundef 344, ptr noundef @.str.75, i32 noundef %34)
  %36 = icmp ne i32 %35, 0
  br i1 %36, label %37, label %51

37:                                               ; preds = %29
  %38 = load ptr, ptr %4, align 8, !tbaa !30
  %39 = call i32 @OSSL_CMP_CTX_set_certConf_cb(ptr noundef %38, ptr noundef @test_certConf_cb)
  %40 = icmp ne i32 %39, 0
  %41 = zext i1 %40 to i32
  %42 = call i32 @test_true(ptr noundef @.str.14, i32 noundef 345, ptr noundef @.str.76, i32 noundef %41)
  %43 = icmp ne i32 %42, 0
  br i1 %43, label %44, label %51

44:                                               ; preds = %37
  %45 = load ptr, ptr %4, align 8, !tbaa !30
  %46 = call i32 @OSSL_CMP_CTX_set_certConf_cb_arg(ptr noundef %45, ptr noundef %3)
  %47 = icmp ne i32 %46, 0
  %48 = zext i1 %47 to i32
  %49 = call i32 @test_true(ptr noundef @.str.14, i32 noundef 346, ptr noundef @.str.77, i32 noundef %48)
  %50 = icmp ne i32 %49, 0
  br i1 %50, label %53, label %51

51:                                               ; preds = %44, %37, %29, %13
  %52 = load ptr, ptr %6, align 8, !tbaa !17
  call void @tear_down(ptr noundef %52)
  store ptr null, ptr %6, align 8, !tbaa !17
  br label %53

53:                                               ; preds = %51, %44
  %54 = load ptr, ptr %5, align 8, !tbaa !40
  call void @X509_REQ_free(ptr noundef %54)
  %55 = load ptr, ptr %6, align 8, !tbaa !17
  %56 = icmp ne ptr %55, null
  br i1 %56, label %57, label %61

57:                                               ; preds = %53
  %58 = load ptr, ptr %6, align 8, !tbaa !17
  %59 = call i32 @execute_exec_certrequest_ses_test(ptr noundef %58)
  store i32 %59, ptr %7, align 4, !tbaa !19
  %60 = load ptr, ptr %6, align 8, !tbaa !17
  call void @tear_down(ptr noundef %60)
  br label %61

61:                                               ; preds = %57, %53
  %62 = load i32, ptr %7, align 4, !tbaa !19
  store i32 %62, ptr %2, align 4
  store i32 1, ptr %8, align 4
  br label %63

63:                                               ; preds = %61, %12
  call void @llvm.lifetime.end.p0(i64 4, ptr %7) #4
  call void @llvm.lifetime.end.p0(i64 8, ptr %6) #4
  call void @llvm.lifetime.end.p0(i64 8, ptr %5) #4
  call void @llvm.lifetime.end.p0(i64 8, ptr %4) #4
  %64 = load i32, ptr %2, align 4
  ret i32 %64
}