; Function Attrs: nounwind uwtable
define internal fastcc i32 @test_exec_P10CR_ses(i32 noundef range(i32 0, 2) %0) unnamed_addr #0 {
  %2 = alloca i32, align 4
  store i32 %0, ptr %2, align 4, !tbaa !28
  %3 = tail call fastcc ptr @set_up(ptr noundef nonnull @__func__.test_exec_P10CR_ses)
  %4 = icmp eq ptr %3, null
  br i1 %4, label %42, label %5

5:                                                ; preds = %1
  %6 = getelementptr inbounds nuw i8, ptr %3, i64 24
  store i32 4, ptr %6, align 8, !tbaa !26
  %.not = icmp eq i32 %0, 0
  %7 = select i1 %.not, i32 0, i32 2
  %8 = getelementptr inbounds nuw i8, ptr %3, i64 28
  store i32 %7, ptr %8, align 4, !tbaa !17
  %9 = getelementptr inbounds nuw i8, ptr %3, i64 8
  %10 = load ptr, ptr %9, align 8, !tbaa !23
  %11 = load ptr, ptr @pkcs10_f, align 8, !tbaa !15
  %12 = load ptr, ptr @libctx, align 8, !tbaa !13
  %13 = tail call ptr @load_csr_der(ptr noundef %11, ptr noundef %12) #4
  %14 = tail call i32 @test_ptr(ptr noundef nonnull @.str.14, i32 noundef 343, ptr noundef nonnull @.str.74, ptr noundef %13) #4
  %.not17 = icmp eq i32 %14, 0
  br i1 %.not17, label %.thread, label %15

15:                                               ; preds = %5
  %16 = tail call i32 @OSSL_CMP_CTX_set1_p10CSR(ptr noundef %10, ptr noundef %13) #4
  %17 = icmp ne i32 %16, 0
  %18 = zext i1 %17 to i32
  %19 = tail call i32 @test_true(ptr noundef nonnull @.str.14, i32 noundef 344, ptr noundef nonnull @.str.75, i32 noundef %18) #4
  %.not18 = icmp eq i32 %19, 0
  br i1 %.not18, label %.thread, label %20

20:                                               ; preds = %15
  %21 = tail call i32 @OSSL_CMP_CTX_set_certConf_cb(ptr noundef %10, ptr noundef nonnull @test_certConf_cb) #4
  %22 = icmp ne i32 %21, 0
  %23 = zext i1 %22 to i32
  %24 = tail call i32 @test_true(ptr noundef nonnull @.str.14, i32 noundef 345, ptr noundef nonnull @.str.76, i32 noundef %23) #4
  %.not19 = icmp eq i32 %24, 0
  br i1 %.not19, label %.thread, label %25

25:                                               ; preds = %20
  %26 = call i32 @OSSL_CMP_CTX_set_certConf_cb_arg(ptr noundef %10, ptr noundef nonnull %2) #4
  %27 = icmp ne i32 %26, 0
  %28 = zext i1 %27 to i32
  %29 = call i32 @test_true(ptr noundef nonnull @.str.14, i32 noundef 346, ptr noundef nonnull @.str.77, i32 noundef %28) #4
  %.not20 = icmp eq i32 %29, 0
  br i1 %.not20, label %.thread, label %35

.thread:                                          ; preds = %5, %15, %20, %25
  %30 = load ptr, ptr %9, align 8, !tbaa !23
  call void @OSSL_CMP_CTX_free(ptr noundef %30) #4
  %31 = getelementptr inbounds nuw i8, ptr %3, i64 16
  %32 = load ptr, ptr %31, align 8, !tbaa !24
  call void @ossl_cmp_mock_srv_free(ptr noundef %32) #4
  %33 = getelementptr inbounds nuw i8, ptr %3, i64 32
  %34 = load ptr, ptr %33, align 8, !tbaa !25
  call void @OPENSSL_sk_free(ptr noundef %34) #4
  call void @CRYPTO_free(ptr noundef nonnull %3, ptr noundef nonnull @.str.14, i32 noundef 51) #4
  call void @X509_REQ_free(ptr noundef %13) #4
  br label %42

35:                                               ; preds = %25
  call void @X509_REQ_free(ptr noundef %13) #4
  %36 = call fastcc i32 @execute_exec_certrequest_ses_test(ptr noundef %3)
  %37 = load ptr, ptr %9, align 8, !tbaa !23
  call void @OSSL_CMP_CTX_free(ptr noundef %37) #4
  %38 = getelementptr inbounds nuw i8, ptr %3, i64 16
  %39 = load ptr, ptr %38, align 8, !tbaa !24
  call void @ossl_cmp_mock_srv_free(ptr noundef %39) #4
  %40 = getelementptr inbounds nuw i8, ptr %3, i64 32
  %41 = load ptr, ptr %40, align 8, !tbaa !25
  call void @OPENSSL_sk_free(ptr noundef %41) #4
  call void @CRYPTO_free(ptr noundef nonnull %3, ptr noundef nonnull @.str.14, i32 noundef 51) #4
  br label %42

42:                                               ; preds = %.thread, %35, %1
  %.015 = phi i32 [ 0, %1 ], [ %36, %35 ], [ 0, %.thread ]
  ret i32 %.015
}